; Function Attrs: mustprogress nofree norecurse nosync nounwind willreturn memory(argmem: readwrite) uwtable
define internal noundef zeroext i1 @"_ZNSt17_Function_handlerIFSt3setIN3nix9StorePathESt4lessIS2_ESaIS2_EERKS2_EZZNS1_10LocalStore18registerValidPathsERKSt3mapIS2_NS1_13ValidPathInfoES4_SaISt4pairIS7_SC_EEEENK3$_0clEvEUlS8_E_E10_M_managerERSt9_Any_dataRKSM_St18_Manager_operation"(ptr nocapture noundef nonnull writeonly align 8 dereferenceable(16) %0, ptr noundef nonnull align 8 dereferenceable(16) %1, i32 noundef %2) #26 align 2 personality ptr @__gxx_personality_v0 {
  switch i32 %2, label %"_ZNSt14_Function_base13_Base_managerIZZN3nix10LocalStore18registerValidPathsERKSt3mapINS1_9StorePathENS1_13ValidPathInfoESt4lessIS4_ESaISt4pairIKS4_S5_EEEENK3$_0clEvEUlRS9_E_E10_M_managerERSt9_Any_dataRKSJ_St18_Manager_operation.exit" [
    i32 0, label %4
    i32 1, label %5
    i32 2, label %6
  ]

4:                                                ; preds = %3
  store ptr @"_ZTIZZN3nix10LocalStore18registerValidPathsERKSt3mapINS_9StorePathENS_13ValidPathInfoESt4lessIS2_ESaISt4pairIKS2_S3_EEEENK3$_0clEvEUlRS7_E_", ptr %0, align 8
  br label %"_ZNSt14_Function_base13_Base_managerIZZN3nix10LocalStore18registerValidPathsERKSt3mapINS1_9StorePathENS1_13ValidPathInfoESt4lessIS4_ESaISt4pairIKS4_S5_EEEENK3$_0clEvEUlRS9_E_E10_M_managerERSt9_Any_dataRKSJ_St18_Manager_operation.exit"

5:                                                ; preds = %3
  store ptr %1, ptr %0, align 8
  br label %"_ZNSt14_Function_base13_Base_managerIZZN3nix10LocalStore18registerValidPathsERKSt3mapINS1_9StorePathENS1_13ValidPathInfoESt4lessIS4_ESaISt4pairIKS4_S5_EEEENK3$_0clEvEUlRS9_E_E10_M_managerERSt9_Any_dataRKSJ_St18_Manager_operation.exit"

6:                                                ; preds = %3
  %.val.i = load i64, ptr %1, align 8
  store i64 %.val.i, ptr %0, align 8
  br label %"_ZNSt14_Function_base13_Base_managerIZZN3nix10LocalStore18registerValidPathsERKSt3mapINS1_9StorePathENS1_13ValidPathInfoESt4lessIS4_ESaISt4pairIKS4_S5_EEEENK3$_0clEvEUlRS9_E_E10_M_managerERSt9_Any_dataRKSJ_St18_Manager_operation.exit"

"_ZNSt14_Function_base13_Base_managerIZZN3nix10LocalStore18registerValidPathsERKSt3mapINS1_9StorePathENS1_13ValidPathInfoESt4lessIS4_ESaISt4pairIKS4_S5_EEEENK3$_0clEvEUlRS9_E_E10_M_managerERSt9_Any_dataRKSJ_St18_Manager_operation.exit": ; preds = %3, %6, %5, %4
  ret i1 false
}